ARM GAS  C:\Users\Mike\AppData\Local\Temp\cc4re2tH.s 			page 1


   1              		.cpu cortex-m0
   2              		.fpu softvfp
   3              		.eabi_attribute 20, 1
   4              		.eabi_attribute 21, 1
   5              		.eabi_attribute 23, 3
   6              		.eabi_attribute 24, 1
   7              		.eabi_attribute 25, 1
   8              		.eabi_attribute 26, 1
   9              		.eabi_attribute 30, 6
  10              		.eabi_attribute 34, 0
  11              		.eabi_attribute 18, 4
  12              		.code	16
  13              		.file	"main.c"
  14              		.text
  15              	.Ltext0:
  16              		.cfi_sections	.debug_frame
  17              		.comm	send_value,1,4
  18              		.comm	adc_val,4,4
  19              		.section	.rodata
  20              		.align	2
  21              	.LC0:
  22 0000 0A204144 		.ascii	"\012 ADC Started \015\000"
  22      43205374 
  22      61727465 
  22      64200D00 
  23              		.global	__aeabi_i2f
  24              		.global	__aeabi_f2d
  25              		.align	2
  26              	.LC4:
  27 0010 252E3466 		.ascii	"%.4f\000"
  27      00
  28 0015 000000   		.align	2
  29              	.LC6:
  30 0018 0A207365 		.ascii	"\012 send_value \015\000"
  30      6E645F76 
  30      616C7565 
  30      200D00
  31 0027 00       		.section	.text.main,"ax",%progbits
  32              		.align	2
  33              		.global	main
  34              		.code	16
  35              		.thumb_func
  36              		.type	main, %function
  37              	main:
  38              	.LFB37:
  39              		.file 1 "main.c"
   1:main.c        **** /* ========================================
   2:main.c        ****  *
   3:main.c        ****  * Mike McGovern
   4:main.c        ****  *
   5:main.c        ****  * PRINT ADC VALUE TO PUTTY VIA UART
   6:main.c        ****  *
   7:main.c        ****  * ========================================
   8:main.c        **** */
   9:main.c        **** #include <project.h>
  10:main.c        **** #include <stdio.h> // allows sprintf conversion
  11:main.c        **** 
ARM GAS  C:\Users\Mike\AppData\Local\Temp\cc4re2tH.s 			page 2


  12:main.c        **** /*Global Variables*/
  13:main.c        **** char send_value[1];
  14:main.c        **** float32 adc_val;
  15:main.c        **** //uint8adc_val;
  16:main.c        **** //float32 adcvoltage;  //Uncomment if using voltage
  17:main.c        **** 
  18:main.c        **** int main()
  19:main.c        **** {
  40              		.loc 1 19 0
  41              		.cfi_startproc
  42 0000 B0B5     		push	{r4, r5, r7, lr}
  43              		.cfi_def_cfa_offset 16
  44              		.cfi_offset 4, -16
  45              		.cfi_offset 5, -12
  46              		.cfi_offset 7, -8
  47              		.cfi_offset 14, -4
  48 0002 00AF     		add	r7, sp, #0
  49              		.cfi_def_cfa_register 7
  20:main.c        ****     
  21:main.c        ****     CyGlobalIntEnable; 
  50              		.loc 1 21 0
  51              	@ 21 "main.c" 1
  52 0004 62B6     		CPSIE   i
  53              	@ 0 "" 2
  22:main.c        ****     UART_Start();
  54              		.loc 1 22 0
  55              		.code	16
  56 0006 FFF7FEFF 		bl	UART_Start
  23:main.c        ****     ADC_Start();
  57              		.loc 1 23 0
  58 000a FFF7FEFF 		bl	ADC_Start
  24:main.c        ****     ADC_StartConvert();
  59              		.loc 1 24 0
  60 000e FFF7FEFF 		bl	ADC_StartConvert
  25:main.c        ****     
  26:main.c        ****     UART_UartPutString("\n ADC Started \r");
  61              		.loc 1 26 0
  62 0012 134B     		ldr	r3, .L3
  63 0014 181C     		mov	r0, r3
  64 0016 FFF7FEFF 		bl	UART_UartPutString
  65              	.L2:
  27:main.c        ****     
  28:main.c        ****     for(;;)
  29:main.c        ****     {
  30:main.c        ****         
  31:main.c        ****         adc_val = ADC_GetResult16(0);
  66              		.loc 1 31 0 discriminator 1
  67 001a 0020     		mov	r0, #0
  68 001c FFF7FEFF 		bl	ADC_GetResult16
  69 0020 031C     		mov	r3, r0
  70 0022 181C     		mov	r0, r3
  71 0024 FFF7FEFF 		bl	__aeabi_i2f
  72 0028 021C     		add	r2, r0, #0
  73 002a 0E4B     		ldr	r3, .L3+4
  74 002c 1A60     		str	r2, [r3]
  32:main.c        ****         //adcvoltage = ADC_CountsTo_mVolts(0,adc_val);
  33:main.c        ****         sprintf(send_value,"%.4f", adc_val);  //"%.4f indicates number of decimals
ARM GAS  C:\Users\Mike\AppData\Local\Temp\cc4re2tH.s 			page 3


  75              		.loc 1 33 0 discriminator 1
  76 002e 0D4B     		ldr	r3, .L3+4
  77 0030 1B68     		ldr	r3, [r3]
  78 0032 181C     		add	r0, r3, #0
  79 0034 FFF7FEFF 		bl	__aeabi_f2d
  80 0038 041C     		mov	r4, r0
  81 003a 0D1C     		mov	r5, r1
  82 003c 0A4A     		ldr	r2, .L3+8
  83 003e 0B4B     		ldr	r3, .L3+12
  84 0040 101C     		mov	r0, r2
  85 0042 191C     		mov	r1, r3
  86 0044 221C     		mov	r2, r4
  87 0046 2B1C     		mov	r3, r5
  88 0048 FFF7FEFF 		bl	sprintf
  34:main.c        ****         UART_UartPutString(send_value);
  89              		.loc 1 34 0 discriminator 1
  90 004c 064B     		ldr	r3, .L3+8
  91 004e 181C     		mov	r0, r3
  92 0050 FFF7FEFF 		bl	UART_UartPutString
  35:main.c        ****         UART_UartPutString("\n send_value \r");  //prints hello each line
  93              		.loc 1 35 0 discriminator 1
  94 0054 064B     		ldr	r3, .L3+16
  95 0056 181C     		mov	r0, r3
  96 0058 FFF7FEFF 		bl	UART_UartPutString
  36:main.c        ****         
  37:main.c        ****     }
  97              		.loc 1 37 0 discriminator 1
  98 005c DDE7     		b	.L2
  99              	.L4:
 100 005e C046     		.align	2
 101              	.L3:
 102 0060 00000000 		.word	.LC0
 103 0064 00000000 		.word	adc_val
 104 0068 00000000 		.word	send_value
 105 006c 10000000 		.word	.LC4
 106 0070 18000000 		.word	.LC6
 107              		.cfi_endproc
 108              	.LFE37:
 109              		.size	main, .-main
 110              		.text
 111              	.Letext0:
 112              		.file 2 "Generated_Source\\PSoC4/cytypes.h"